; Function Attrs: mustprogress nounwind uwtable
define hidden noundef ptr @_ZNK9UDivINode5ValueEP8PhaseGVN(ptr noundef nonnull align 8 dereferenceable(52) %0, ptr nocapture noundef readonly %1) unnamed_addr #0 align 2 {
  %3 = getelementptr inbounds i8, ptr %0, i64 8
  %4 = load ptr, ptr %3, align 8
  %5 = getelementptr inbounds i8, ptr %4, i64 8
  %6 = load ptr, ptr %5, align 8
  %7 = getelementptr inbounds i8, ptr %1, i64 40
  %8 = load ptr, ptr %7, align 8
  %9 = getelementptr inbounds i8, ptr %6, i64 40
  %10 = load i32, ptr %9, align 8
  %11 = getelementptr inbounds i8, ptr %8, i64 16
  %12 = load ptr, ptr %11, align 8
  %13 = zext i32 %10 to i64
  %14 = getelementptr inbounds ptr, ptr %12, i64 %13
  %15 = load ptr, ptr %14, align 8
  %16 = getelementptr inbounds i8, ptr %4, i64 16
  %17 = load ptr, ptr %16, align 8
  %18 = getelementptr inbounds i8, ptr %17, i64 40
  %19 = load i32, ptr %18, align 8
  %20 = zext i32 %19 to i64
  %21 = getelementptr inbounds ptr, ptr %12, i64 %20
  %22 = load ptr, ptr %21, align 8
  %23 = load ptr, ptr @_ZN4Type3TOPE, align 8
  %24 = icmp eq ptr %15, %23
  %25 = icmp eq ptr %22, %23
  %or.cond19 = or i1 %24, %25
  br i1 %or.cond19, label %42, label %26

26:                                               ; preds = %2
  %27 = icmp eq ptr %6, %17
  br i1 %27, label %28, label %30

28:                                               ; preds = %26
  %29 = load ptr, ptr @_ZN7TypeInt3ONEE, align 8
  br label %42

30:                                               ; preds = %26
  %31 = load ptr, ptr %0, align 8
  %32 = getelementptr inbounds i8, ptr %31, i64 40
  %33 = load ptr, ptr %32, align 8
  %34 = tail call noundef ptr %33(ptr noundef nonnull align 8 dereferenceable(52) %0) #8
  %35 = icmp eq ptr %15, %34
  %36 = icmp eq ptr %22, %34
  %or.cond = or i1 %35, %36
  br i1 %or.cond, label %42, label %37

37:                                               ; preds = %30
  %38 = load ptr, ptr @_ZN4Type6BOTTOME, align 8
  %39 = icmp eq ptr %15, %38
  %40 = icmp eq ptr %22, %38
  %or.cond18 = or i1 %39, %40
  %41 = load ptr, ptr @_ZN7TypeInt3INTE, align 8
  %spec.select = select i1 %or.cond18, ptr %34, ptr %41
  br label %42

42:                                               ; preds = %37, %30, %2, %28
  %.0 = phi ptr [ %29, %28 ], [ %23, %2 ], [ %34, %30 ], [ %spec.select, %37 ]
  ret ptr %.0
}